; Function Attrs: nounwind sspstrong uwtable
define dso_local void @esp_hard_reset(ptr noundef initializes((160, 192), (209, 210), (212, 216), (448, 452)) %s) local_unnamed_addr #0 {
entry:
  %rregs = getelementptr inbounds nuw i8, ptr %s, i64 160
  %tchi_written = getelementptr inbounds nuw i8, ptr %s, i64 209
  store i8 0, ptr %tchi_written, align 1
  %ti_size = getelementptr inbounds nuw i8, ptr %s, i64 212
  store i32 0, ptr %ti_size, align 4
  %async_len = getelementptr inbounds nuw i8, ptr %s, i64 448
  store i32 0, ptr %async_len, align 8
  %fifo = getelementptr inbounds nuw i8, ptr %s, i64 224
  tail call void @llvm.memset.p0.i64(ptr noundef nonnull align 8 dereferenceable(32) %rregs, i8 0, i64 32, i1 false)
  tail call void @fifo8_reset(ptr noundef nonnull %fifo) #10
  %cmdfifo = getelementptr inbounds nuw i8, ptr %s, i64 408
  tail call void @fifo8_reset(ptr noundef nonnull %cmdfifo) #10
  %dma = getelementptr inbounds nuw i8, ptr %s, i64 220
  store i32 0, ptr %dma, align 4
  %do_cmd = getelementptr inbounds nuw i8, ptr %s, i64 436
  store i32 0, ptr %do_cmd, align 4
  %dma_cb = getelementptr inbounds nuw i8, ptr %s, i64 488
  store ptr null, ptr %dma_cb, align 8
  %arrayidx = getelementptr i8, ptr %s, i64 168
  store i8 7, ptr %arrayidx, align 8
  ret void
}